; Function Attrs: mustprogress uwtable
define void @_ZNK8QuantLib9FdmSabrOp14preconditionerERKNS_5ArrayEd(ptr dead_on_unwind noalias writable sret(%"class.QuantLib::Array") align 8 %agg.result, ptr noundef nonnull align 8 dereferenceable(600) %this, ptr noundef nonnull align 8 dereferenceable(16) %r, double noundef %dt) unnamed_addr #6 align 2 personality ptr @__gxx_personality_v0 {
entry:
  %ref.tmp = alloca %"class.QuantLib::Array", align 8
  call void @llvm.lifetime.start.p0(i64 16, ptr nonnull %ref.tmp) #23
  %vtable = load ptr, ptr %this, align 8, !tbaa !3
  %vfn = getelementptr inbounds i8, ptr %vtable, i64 64
  %0 = load ptr, ptr %vfn, align 8
  call void %0(ptr dead_on_unwind nonnull writable sret(%"class.QuantLib::Array") align 8 %ref.tmp, ptr noundef nonnull align 8 dereferenceable(600) %this, i64 noundef 0, ptr noundef nonnull align 8 dereferenceable(16) %r, double noundef %dt)
  %vtable2 = load ptr, ptr %this, align 8, !tbaa !3
  %vfn3 = getelementptr inbounds i8, ptr %vtable2, i64 64
  %1 = load ptr, ptr %vfn3, align 8
  invoke void %1(ptr dead_on_unwind writable sret(%"class.QuantLib::Array") align 8 %agg.result, ptr noundef nonnull align 8 dereferenceable(600) %this, i64 noundef 1, ptr noundef nonnull align 8 dereferenceable(16) %ref.tmp, double noundef %dt)
          to label %invoke.cont unwind label %lpad

invoke.cont:                                      ; preds = %entry
  %2 = load ptr, ptr %ref.tmp, align 8, !tbaa !15
  %cmp.not.i.i = icmp eq ptr %2, null
  br i1 %cmp.not.i.i, label %_ZN8QuantLib5ArrayD2Ev.exit, label %_ZNKSt14default_deleteIA_dEclIdEENSt9enable_ifIXsr14is_convertibleIPA_T_PS0_EE5valueEvE4typeEPS4_.exit.i.i

_ZNKSt14default_deleteIA_dEclIdEENSt9enable_ifIXsr14is_convertibleIPA_T_PS0_EE5valueEvE4typeEPS4_.exit.i.i: ; preds = %invoke.cont
  call void @_ZdaPv(ptr noundef nonnull %2) #25
  br label %_ZN8QuantLib5ArrayD2Ev.exit

_ZN8QuantLib5ArrayD2Ev.exit:                      ; preds = %invoke.cont, %_ZNKSt14default_deleteIA_dEclIdEENSt9enable_ifIXsr14is_convertibleIPA_T_PS0_EE5valueEvE4typeEPS4_.exit.i.i
  call void @llvm.lifetime.end.p0(i64 16, ptr nonnull %ref.tmp) #23
  ret void

lpad:                                             ; preds = %entry
  %3 = landingpad { ptr, i32 }
          cleanup
  %4 = load ptr, ptr %ref.tmp, align 8, !tbaa !15
  %cmp.not.i.i2 = icmp eq ptr %4, null
  br i1 %cmp.not.i.i2, label %_ZN8QuantLib5ArrayD2Ev.exit4, label %_ZNKSt14default_deleteIA_dEclIdEENSt9enable_ifIXsr14is_convertibleIPA_T_PS0_EE5valueEvE4typeEPS4_.exit.i.i3

_ZNKSt14default_deleteIA_dEclIdEENSt9enable_ifIXsr14is_convertibleIPA_T_PS0_EE5valueEvE4typeEPS4_.exit.i.i3: ; preds = %lpad
  call void @_ZdaPv(ptr noundef nonnull %4) #25
  br label %_ZN8QuantLib5ArrayD2Ev.exit4

_ZN8QuantLib5ArrayD2Ev.exit4:                     ; preds = %lpad, %_ZNKSt14default_deleteIA_dEclIdEENSt9enable_ifIXsr14is_convertibleIPA_T_PS0_EE5valueEvE4typeEPS4_.exit.i.i3
  call void @llvm.lifetime.end.p0(i64 16, ptr nonnull %ref.tmp) #23
  resume { ptr, i32 } %3
}